target datalayout = "e-m:e-p270:32:32-p271:32:32-p272:64:64-i64:64-i128:128-f80:128-n8:16:32:64-S128"
target triple = "x86_64-pc-linux-gnu"

; Function Attrs: inlinehint mustprogress nounwind uwtable
define internal noundef ptr @_ZN8LightGBM6CommonL4AtoiIiEEPKcS3_PT_(ptr noundef %0, ptr noundef %1) #8 {
  %3 = alloca ptr, align 8
  %4 = alloca ptr, align 8
  %5 = alloca i32, align 4
  %6 = alloca i32, align 4
  store ptr %0, ptr %3, align 8, !tbaa !13
  store ptr %1, ptr %4, align 8, !tbaa !180
  call void @llvm.lifetime.start.p0(i64 4, ptr %5) #3
  call void @llvm.lifetime.start.p0(i64 4, ptr %6) #3
  br label %7

7:                                                ; preds = %12, %2
  %8 = load ptr, ptr %3, align 8, !tbaa !13
  %9 = load i8, ptr %8, align 1, !tbaa !134
  %10 = sext i8 %9 to i32
  %11 = icmp eq i32 %10, 32
  br i1 %11, label %12, label %15

12:                                               ; preds = %7
  %13 = load ptr, ptr %3, align 8, !tbaa !13
  %14 = getelementptr inbounds nuw i8, ptr %13, i32 1
  store ptr %14, ptr %3, align 8, !tbaa !13
  br label %7, !llvm.loop !314

15:                                               ; preds = %7
  store i32 1, ptr %5, align 4, !tbaa !9
  %16 = load ptr, ptr %3, align 8, !tbaa !13
  %17 = load i8, ptr %16, align 1, !tbaa !134
  %18 = sext i8 %17 to i32
  %19 = icmp eq i32 %18, 45
  br i1 %19, label %20, label %23

20:                                               ; preds = %15
  store i32 -1, ptr %5, align 4, !tbaa !9
  %21 = load ptr, ptr %3, align 8, !tbaa !13
  %22 = getelementptr inbounds nuw i8, ptr %21, i32 1
  store ptr %22, ptr %3, align 8, !tbaa !13
  br label %32

23:                                               ; preds = %15
  %24 = load ptr, ptr %3, align 8, !tbaa !13
  %25 = load i8, ptr %24, align 1, !tbaa !134
  %26 = sext i8 %25 to i32
  %27 = icmp eq i32 %26, 43
  br i1 %27, label %28, label %31

28:                                               ; preds = %23
  %29 = load ptr, ptr %3, align 8, !tbaa !13
  %30 = getelementptr inbounds nuw i8, ptr %29, i32 1
  store ptr %30, ptr %3, align 8, !tbaa !13
  br label %31

31:                                               ; preds = %28, %23
  br label %32

32:                                               ; preds = %31, %20
  store i32 0, ptr %6, align 4, !tbaa !9
  br label %33

33:                                               ; preds = %53, %32
  %34 = load ptr, ptr %3, align 8, !tbaa !13
  %35 = load i8, ptr %34, align 1, !tbaa !134
  %36 = sext i8 %35 to i32
  %37 = icmp sge i32 %36, 48
  br i1 %37, label %38, label %43

38:                                               ; preds = %33
  %39 = load ptr, ptr %3, align 8, !tbaa !13
  %40 = load i8, ptr %39, align 1, !tbaa !134
  %41 = sext i8 %40 to i32
  %42 = icmp sle i32 %41, 57
  br label %43

43:                                               ; preds = %38, %33
  %44 = phi i1 [ false, %33 ], [ %42, %38 ]
  br i1 %44, label %45, label %56

45:                                               ; preds = %43
  %46 = load i32, ptr %6, align 4, !tbaa !9
  %47 = mul nsw i32 %46, 10
  %48 = load ptr, ptr %3, align 8, !tbaa !13
  %49 = load i8, ptr %48, align 1, !tbaa !134
  %50 = sext i8 %49 to i32
  %51 = sub nsw i32 %50, 48
  %52 = add nsw i32 %47, %51
  store i32 %52, ptr %6, align 4, !tbaa !9
  br label %53

53:                                               ; preds = %45
  %54 = load ptr, ptr %3, align 8, !tbaa !13
  %55 = getelementptr inbounds nuw i8, ptr %54, i32 1
  store ptr %55, ptr %3, align 8, !tbaa !13
  br label %33, !llvm.loop !315

56:                                               ; preds = %43
  %57 = load i32, ptr %5, align 4, !tbaa !9
  %58 = load i32, ptr %6, align 4, !tbaa !9
  %59 = mul nsw i32 %57, %58
  %60 = load ptr, ptr %4, align 8, !tbaa !180
  store i32 %59, ptr %60, align 4, !tbaa !9
  br label %61

61:                                               ; preds = %66, %56
  %62 = load ptr, ptr %3, align 8, !tbaa !13
  %63 = load i8, ptr %62, align 1, !tbaa !134
  %64 = sext i8 %63 to i32
  %65 = icmp eq i32 %64, 32
  br i1 %65, label %66, label %69

66:                                               ; preds = %61
  %67 = load ptr, ptr %3, align 8, !tbaa !13
  %68 = getelementptr inbounds nuw i8, ptr %67, i32 1
  store ptr %68, ptr %3, align 8, !tbaa !13
  br label %61, !llvm.loop !316

69:                                               ; preds = %61
  %70 = load ptr, ptr %3, align 8, !tbaa !13
  call void @llvm.lifetime.end.p0(i64 4, ptr %6) #3
  call void @llvm.lifetime.end.p0(i64 4, ptr %5) #3
  ret ptr %70
}