; Function Attrs: inlinehint mustprogress nofree norecurse nosync nounwind memory(argmem: readwrite) uwtable
define internal fastcc void @_ZN8LightGBM6CommonL4AtoiIiEEPKcS3_PT_(ptr noundef readonly %0, ptr noundef nonnull writeonly captures(none) %1) unnamed_addr #19 {
  br label %3

3:                                                ; preds = %5, %2
  %.017 = phi ptr [ %0, %2 ], [ %6, %5 ]
  %4 = load i8, ptr %.017, align 1, !tbaa !20
  switch i8 %4, label %.loopexit [
    i8 32, label %5
    i8 45, label %7
    i8 43, label %9
  ]

5:                                                ; preds = %3
  %6 = getelementptr inbounds nuw i8, ptr %.017, i64 1
  br label %3, !llvm.loop !170

7:                                                ; preds = %3
  %8 = getelementptr inbounds nuw i8, ptr %.017, i64 1
  br label %.loopexit

9:                                                ; preds = %3
  %10 = getelementptr inbounds nuw i8, ptr %.017, i64 1
  br label %.loopexit

.loopexit:                                        ; preds = %3, %9, %7
  %.1 = phi ptr [ %8, %7 ], [ %10, %9 ], [ %.017, %3 ]
  %.016 = phi i32 [ -1, %7 ], [ 1, %9 ], [ 1, %3 ]
  %11 = load i8, ptr %.1, align 1, !tbaa !20
  %12 = add i8 %11, -48
  %or.cond22 = icmp ult i8 %12, 10
  br i1 %or.cond22, label %.lr.ph, label %.critedge

.lr.ph:                                           ; preds = %.loopexit, %.lr.ph
  %13 = phi i8 [ %18, %.lr.ph ], [ %11, %.loopexit ]
  %.024 = phi i32 [ %16, %.lr.ph ], [ 0, %.loopexit ]
  %.223 = phi ptr [ %17, %.lr.ph ], [ %.1, %.loopexit ]
  %14 = mul nsw i32 %.024, 10
  %narrow = add nsw i8 %13, -48
  %15 = zext nneg i8 %narrow to i32
  %16 = add nsw i32 %14, %15
  %17 = getelementptr inbounds nuw i8, ptr %.223, i64 1
  %18 = load i8, ptr %17, align 1, !tbaa !20
  %19 = add i8 %18, -48
  %or.cond = icmp ult i8 %19, 10
  br i1 %or.cond, label %.lr.ph, label %.critedge, !llvm.loop !171

.critedge:                                        ; preds = %.lr.ph, %.loopexit
  %.0.lcssa = phi i32 [ 0, %.loopexit ], [ %16, %.lr.ph ]
  %20 = mul nsw i32 %.0.lcssa, %.016
  store i32 %20, ptr %1, align 4, !tbaa !172
  ret void
}